(dp1
S'failed'
p2
(lp3
S'2'
asS'source_names'
p4
(lp5
S'.'
asS'ids'
p6
(dp7
I1
(S'/home/amith/mining/src/tests/test_gui.py'
S'test_gui'
p8
S'TabsTest.test_shapefieldorder'
tp9
sI2
(S'/home/amith/mining/src/tests/test_opensave.py'
S'test_opensave'
p10
S'ApplicationSave.test_save'
tp11
sI3
(S'/home/amith/mining/src/tests/test_opensave.py'
g10
S'OpenWidgetTest.test_limit'
tp12
sI4
(S'/home/amith/mining/src/tests/test_opensave.py'
g10
S'OpenWidgetTest.test_open'
tp13
sI5
(S'/home/amith/mining/src/tests/test_opensave.py'
g10
S'OpenWidgetTest.test_populated'
tp14
sI6
(S'/home/amith/mining/src/tests/test_opensave.py'
g10
S'OpenWidgetTest.test_search'
tp15
sI7
(S'/home/amith/mining/src/tests/test_opensave.py'
g10
S'OpenWidgetTest.test_selection'
tp16
sI8
(S'/home/amith/mining/src/tests/test_opensave.py'
g10
S'SaveDialogTest.test_dialog'
tp17
sI9
(S'/home/amith/mining/src/tests/test_opensave.py'
g10
S'SaveDialogTest.test_save'
tp18
sI10
(S'/home/amith/mining/src/tests/test_regex.py'
S'test_regex'
p19
S'RegExTest.test_regex_0_regex_accept'
tp20
sI11
(S'/home/amith/mining/src/tests/test_regex.py'
g19
S'RegExTest.test_regex_1_regex_reject'
tp21
sI12
(S'/home/amith/mining/src/tests/test_sql.py'
S'test_sql'
p22
S'ImportExportSqlTest.test_exportimport'
tp23
sI13
(S'/home/amith/mining/src/tests/test_sql.py'
g22
S'SqlTest.test_insert_0_INSERT_INTO_HEADER_mine_orebody_level_stopename_VALUES_mine_orebody_level_stopename_'
tp24
sI14
(S'/home/amith/mining/src/tests/test_sql.py'
g22
S'SqlTest.test_insert_1_INSERT_INTO_HEADER_mine_orebody_level_stopename_VALUES_mine_orebody_level_stopename_'
tp25
sI15
(S'/home/amith/mining/src/tests/test_sql.py'
g22
S'SqlTest.test_pull_0_SELECT_FROM_HEADER_WHERE_mine_coalesce_mine_mine_AND_orebody_coalesce_orebody_orebody_AND_stopename_coalesce_stopename_stopename_AND_level_coalesce_level_level_'
tp26
sI16
(S'/home/amith/mining/src/tests/test_sql.py'
g22
S'SqlTest.test_pull_1_SELECT_FROM_HEADER_WHERE_mine_coalesce_mine_mine_AND_orebody_coalesce_orebody_orebody_AND_stopename_coalesce_stopename_stopename_AND_level_coalesce_level_level_'
tp27
sI17
(S'/home/amith/mining/src/tests/test_sql.py'
g22
S'SqlTest.test_shapeTable'
tp28
sI18
(S'/home/amith/mining/src/tests/test_sql.py'
g22
S'SqlTest.test_tables'
tp29
sI19
(S'/home/amith/mining/src/tests/test_tabs.py'
S'test_tabs'
p30
S'CriticalJSTab.test_load_0'
tp31
sI20
(S'/home/amith/mining/src/tests/test_tabs.py'
g30
S'CriticalJSTab.test_save_0'
tp32
sI21
(S'/home/amith/mining/src/tests/test_tabs.py'
g30
S'CriticalJSTab.test_save_1'
tp33
sI22
(S'/home/amith/mining/src/tests/test_tabs.py'
g30
S'CriticalJSTab.test_save_2'
tp34
sI23
(S'/home/amith/mining/src/tests/test_tabs.py'
g30
S'FactorA.test_load'
tp35
sI24
(S'/home/amith/mining/src/tests/test_tabs.py'
g30
S'ShapeTab.test_load_0'
tp36
sI25
(S'/home/amith/mining/src/tests/test_tabs.py'
g30
S'ShapeTab.test_load_1'
tp37
sI26
(S'/home/amith/mining/src/tests/test_tabs.py'
g30
S'ShapeTab.test_save_0'
tp38
sI27
(S'/home/amith/mining/src/tests/test_tabs.py'
g30
S'ShapeTab.test_save_1'
tp39
sI28
(S'/home/amith/mining/src/tests/test_tabs.py'
g30
S'ShapeTab.test_submit'
tp40
ss.